; ModuleID = '52/2091.c'
source_filename = "52/2091.c"
target datalayout = "e-m:e-p270:32:32-p271:32:32-p272:64:64-i64:64-f80:128-n8:16:32:64-S128"
target triple = "x86_64-pc-linux-gnu"

@.str = private unnamed_addr constant [6 x i8] c"%d %d\00", align 1
@.str.1 = private unnamed_addr constant [3 x i8] c"%d\00", align 1
@.str.2 = private unnamed_addr constant [4 x i8] c"%d \00", align 1

; Function Attrs: noinline nounwind uwtable
define dso_local i32 @main() #0 {
  %1 = alloca i32, align 4
  %2 = alloca i32, align 4
  %3 = alloca i32, align 4
  %4 = alloca [100 x i32], align 16
  %5 = alloca i32, align 4
  %6 = alloca i32, align 4
  %7 = alloca i32, align 4
  %8 = alloca i32, align 4
  store i32 0, i32* %1, align 4
  %9 = call i32 (i8*, ...) @__isoc99_scanf(i8* getelementptr inbounds ([6 x i8], [6 x i8]* @.str, i64 0, i64 0), i32* %2, i32* %3)
  store i32 0, i32* %5, align 4
  br label %10

10:                                               ; preds = %19, %0
  %11 = load i32, i32* %5, align 4
  %12 = load i32, i32* %2, align 4
  %13 = icmp slt i32 %11, %12
  br i1 %13, label %14, label %22

14:                                               ; preds = %10
  %15 = load i32, i32* %5, align 4
  %16 = sext i32 %15 to i64
  %17 = getelementptr inbounds [100 x i32], [100 x i32]* %4, i64 0, i64 %16
  %18 = call i32 (i8*, ...) @__isoc99_scanf(i8* getelementptr inbounds ([3 x i8], [3 x i8]* @.str.1, i64 0, i64 0), i32* %17)
  br label %19

19:                                               ; preds = %14
  %20 = load i32, i32* %5, align 4
  %21 = add nsw i32 %20, 1
  store i32 %21, i32* %5, align 4
  br label %10

22:                                               ; preds = %10
  store i32 0, i32* %5, align 4
  br label %23

23:                                               ; preds = %53, %22
  %24 = load i32, i32* %5, align 4
  %25 = load i32, i32* %3, align 4
  %26 = icmp slt i32 %24, %25
  br i1 %26, label %27, label %56

27:                                               ; preds = %23
  %28 = getelementptr inbounds [100 x i32], [100 x i32]* %4, i64 0, i64 0
  %29 = load i32, i32* %28, align 16
  store i32 %29, i32* %6, align 4
  store i32 0, i32* %7, align 4
  br label %30

30:                                               ; preds = %47, %27
  %31 = load i32, i32* %7, align 4
  %32 = load i32, i32* %2, align 4
  %33 = sub nsw i32 %32, 1
  %34 = icmp slt i32 %31, %33
  br i1 %34, label %35, label %50

35:                                               ; preds = %30
  %36 = load i32, i32* %7, align 4
  %37 = add nsw i32 %36, 1
  %38 = sext i32 %37 to i64
  %39 = getelementptr inbounds [100 x i32], [100 x i32]* %4, i64 0, i64 %38
  %40 = load i32, i32* %39, align 4
  store i32 %40, i32* %8, align 4
  %41 = load i32, i32* %6, align 4
  %42 = load i32, i32* %7, align 4
  %43 = add nsw i32 %42, 1
  %44 = sext i32 %43 to i64
  %45 = getelementptr inbounds [100 x i32], [100 x i32]* %4, i64 0, i64 %44
  store i32 %41, i32* %45, align 4
  %46 = load i32, i32* %8, align 4
  store i32 %46, i32* %6, align 4
  br label %47

47:                                               ; preds = %35
  %48 = load i32, i32* %7, align 4
  %49 = add nsw i32 %48, 1
  store i32 %49, i32* %7, align 4
  br label %30

50:                                               ; preds = %30
  %51 = load i32, i32* %6, align 4
  %52 = getelementptr inbounds [100 x i32], [100 x i32]* %4, i64 0, i64 0
  store i32 %51, i32* %52, align 16
  br label %53

53:                                               ; preds = %50
  %54 = load i32, i32* %5, align 4
  %55 = add nsw i32 %54, 1
  store i32 %55, i32* %5, align 4
  br label %23

56:                                               ; preds = %23
  store i32 0, i32* %5, align 4
  br label %57

57:                                               ; preds = %68, %56
  %58 = load i32, i32* %5, align 4
  %59 = load i32, i32* %2, align 4
  %60 = sub nsw i32 %59, 1
  %61 = icmp slt i32 %58, %60
  br i1 %61, label %62, label %71

62:                                               ; preds = %57
  %63 = load i32, i32* %5, align 4
  %64 = sext i32 %63 to i64
  %65 = getelementptr inbounds [100 x i32], [100 x i32]* %4, i64 0, i64 %64
  %66 = load i32, i32* %65, align 4
  %67 = call i32 (i8*, ...) @printf(i8* getelementptr inbounds ([4 x i8], [4 x i8]* @.str.2, i64 0, i64 0), i32 %66)
  br label %68

68:                                               ; preds = %62
  %69 = load i32, i32* %5, align 4
  %70 = add nsw i32 %69, 1
  store i32 %70, i32* %5, align 4
  br label %57

71:                                               ; preds = %57
  %72 = load i32, i32* %2, align 4
  %73 = sub nsw i32 %72, 1
  %74 = sext i32 %73 to i64
  %75 = getelementptr inbounds [100 x i32], [100 x i32]* %4, i64 0, i64 %74
  %76 = load i32, i32* %75, align 4
  %77 = call i32 (i8*, ...) @printf(i8* getelementptr inbounds ([3 x i8], [3 x i8]* @.str.1, i64 0, i64 0), i32 %76)
  ret i32 0
}

declare dso_local i32 @__isoc99_scanf(i8*, ...) #1

declare dso_local i32 @printf(i8*, ...) #1


!llvm.module.flags = !{!0}
!llvm.ident = !{!1}

!0 = !{i32 1, !"wchar_size", i32 4}
!1 = !{!"clang version 10.0.0-4ubuntu1 "}
